#include <math.h>
#include <stdio.h>
#include <stdlib.h>
#include <string.h>

int main()
{
	int i,j,num;
	int m=-100000;
	int n=-100000;
	int a[300];
	char c[300];
	for (i=0;i<300;i++)
	{
		scanf("%d%c",&a[i],&c[i]);
		if (c[i]=='\n') break;
	}
	num=i;
	if (i==0)
		printf("No");
	else
	{
		for (i=0;i<=num;i++)
			if (a[i]>m) m=a[i];
		for (i=0;i<=num;i++)
		{
			if (a[i]==m)
			{
				a[i]=-10000;
			}
		}
		for (i=0;i<=num;i++)
			if (a[i]>n) n=a[i];
		if (n==m||n==-10000)
			printf("No");
		else	
			printf("%d",n);
	}
	return 0;
}

