; ModuleID = '22/399.c'
source_filename = "22/399.c"
target datalayout = "e-m:e-p270:32:32-p271:32:32-p272:64:64-i64:64-f80:128-n8:16:32:64-S128"
target triple = "x86_64-pc-linux-gnu"

@.str = private unnamed_addr constant [5 x i8] c"%d%c\00", align 1
@.str.1 = private unnamed_addr constant [3 x i8] c"No\00", align 1
@.str.2 = private unnamed_addr constant [3 x i8] c"%d\00", align 1

; Function Attrs: noinline nounwind uwtable
define dso_local i32 @main() #0 {
  %1 = alloca i32, align 4
  %2 = alloca i32, align 4
  %3 = alloca i32, align 4
  %4 = alloca i32, align 4
  %5 = alloca i32, align 4
  %6 = alloca i32, align 4
  %7 = alloca [300 x i32], align 16
  %8 = alloca [300 x i8], align 16
  store i32 0, i32* %1, align 4
  store i32 -100000, i32* %5, align 4
  store i32 -100000, i32* %6, align 4
  store i32 0, i32* %2, align 4
  br label %9

9:                                                ; preds = %28, %0
  %10 = load i32, i32* %2, align 4
  %11 = icmp slt i32 %10, 300
  br i1 %11, label %12, label %31

12:                                               ; preds = %9
  %13 = load i32, i32* %2, align 4
  %14 = sext i32 %13 to i64
  %15 = getelementptr inbounds [300 x i32], [300 x i32]* %7, i64 0, i64 %14
  %16 = load i32, i32* %2, align 4
  %17 = sext i32 %16 to i64
  %18 = getelementptr inbounds [300 x i8], [300 x i8]* %8, i64 0, i64 %17
  %19 = call i32 (i8*, ...) @__isoc99_scanf(i8* getelementptr inbounds ([5 x i8], [5 x i8]* @.str, i64 0, i64 0), i32* %15, i8* %18)
  %20 = load i32, i32* %2, align 4
  %21 = sext i32 %20 to i64
  %22 = getelementptr inbounds [300 x i8], [300 x i8]* %8, i64 0, i64 %21
  %23 = load i8, i8* %22, align 1
  %24 = sext i8 %23 to i32
  %25 = icmp eq i32 %24, 10
  br i1 %25, label %26, label %27

26:                                               ; preds = %12
  br label %31

27:                                               ; preds = %12
  br label %28

28:                                               ; preds = %27
  %29 = load i32, i32* %2, align 4
  %30 = add nsw i32 %29, 1
  store i32 %30, i32* %2, align 4
  br label %9

31:                                               ; preds = %26, %9
  %32 = load i32, i32* %2, align 4
  store i32 %32, i32* %4, align 4
  %33 = load i32, i32* %2, align 4
  %34 = icmp eq i32 %33, 0
  br i1 %34, label %35, label %37

35:                                               ; preds = %31
  %36 = call i32 (i8*, ...) @printf(i8* getelementptr inbounds ([3 x i8], [3 x i8]* @.str.1, i64 0, i64 0))
  br label %112

37:                                               ; preds = %31
  store i32 0, i32* %2, align 4
  br label %38

38:                                               ; preds = %55, %37
  %39 = load i32, i32* %2, align 4
  %40 = load i32, i32* %4, align 4
  %41 = icmp sle i32 %39, %40
  br i1 %41, label %42, label %58

42:                                               ; preds = %38
  %43 = load i32, i32* %2, align 4
  %44 = sext i32 %43 to i64
  %45 = getelementptr inbounds [300 x i32], [300 x i32]* %7, i64 0, i64 %44
  %46 = load i32, i32* %45, align 4
  %47 = load i32, i32* %5, align 4
  %48 = icmp sgt i32 %46, %47
  br i1 %48, label %49, label %54

49:                                               ; preds = %42
  %50 = load i32, i32* %2, align 4
  %51 = sext i32 %50 to i64
  %52 = getelementptr inbounds [300 x i32], [300 x i32]* %7, i64 0, i64 %51
  %53 = load i32, i32* %52, align 4
  store i32 %53, i32* %5, align 4
  br label %54

54:                                               ; preds = %49, %42
  br label %55

55:                                               ; preds = %54
  %56 = load i32, i32* %2, align 4
  %57 = add nsw i32 %56, 1
  store i32 %57, i32* %2, align 4
  br label %38

58:                                               ; preds = %38
  store i32 0, i32* %2, align 4
  br label %59

59:                                               ; preds = %75, %58
  %60 = load i32, i32* %2, align 4
  %61 = load i32, i32* %4, align 4
  %62 = icmp sle i32 %60, %61
  br i1 %62, label %63, label %78

63:                                               ; preds = %59
  %64 = load i32, i32* %2, align 4
  %65 = sext i32 %64 to i64
  %66 = getelementptr inbounds [300 x i32], [300 x i32]* %7, i64 0, i64 %65
  %67 = load i32, i32* %66, align 4
  %68 = load i32, i32* %5, align 4
  %69 = icmp eq i32 %67, %68
  br i1 %69, label %70, label %74

70:                                               ; preds = %63
  %71 = load i32, i32* %2, align 4
  %72 = sext i32 %71 to i64
  %73 = getelementptr inbounds [300 x i32], [300 x i32]* %7, i64 0, i64 %72
  store i32 -10000, i32* %73, align 4
  br label %74

74:                                               ; preds = %70, %63
  br label %75

75:                                               ; preds = %74
  %76 = load i32, i32* %2, align 4
  %77 = add nsw i32 %76, 1
  store i32 %77, i32* %2, align 4
  br label %59

78:                                               ; preds = %59
  store i32 0, i32* %2, align 4
  br label %79

79:                                               ; preds = %96, %78
  %80 = load i32, i32* %2, align 4
  %81 = load i32, i32* %4, align 4
  %82 = icmp sle i32 %80, %81
  br i1 %82, label %83, label %99

83:                                               ; preds = %79
  %84 = load i32, i32* %2, align 4
  %85 = sext i32 %84 to i64
  %86 = getelementptr inbounds [300 x i32], [300 x i32]* %7, i64 0, i64 %85
  %87 = load i32, i32* %86, align 4
  %88 = load i32, i32* %6, align 4
  %89 = icmp sgt i32 %87, %88
  br i1 %89, label %90, label %95

90:                                               ; preds = %83
  %91 = load i32, i32* %2, align 4
  %92 = sext i32 %91 to i64
  %93 = getelementptr inbounds [300 x i32], [300 x i32]* %7, i64 0, i64 %92
  %94 = load i32, i32* %93, align 4
  store i32 %94, i32* %6, align 4
  br label %95

95:                                               ; preds = %90, %83
  br label %96

96:                                               ; preds = %95
  %97 = load i32, i32* %2, align 4
  %98 = add nsw i32 %97, 1
  store i32 %98, i32* %2, align 4
  br label %79

99:                                               ; preds = %79
  %100 = load i32, i32* %6, align 4
  %101 = load i32, i32* %5, align 4
  %102 = icmp eq i32 %100, %101
  br i1 %102, label %106, label %103

103:                                              ; preds = %99
  %104 = load i32, i32* %6, align 4
  %105 = icmp eq i32 %104, -10000
  br i1 %105, label %106, label %108

106:                                              ; preds = %103, %99
  %107 = call i32 (i8*, ...) @printf(i8* getelementptr inbounds ([3 x i8], [3 x i8]* @.str.1, i64 0, i64 0))
  br label %111

108:                                              ; preds = %103
  %109 = load i32, i32* %6, align 4
  %110 = call i32 (i8*, ...) @printf(i8* getelementptr inbounds ([3 x i8], [3 x i8]* @.str.2, i64 0, i64 0), i32 %109)
  br label %111

111:                                              ; preds = %108, %106
  br label %112

112:                                              ; preds = %111, %35
  ret i32 0
}

declare dso_local i32 @__isoc99_scanf(i8*, ...) #1

declare dso_local i32 @printf(i8*, ...) #1


!llvm.module.flags = !{!0}
!llvm.ident = !{!1}

!0 = !{i32 1, !"wchar_size", i32 4}
!1 = !{!"clang version 10.0.0-4ubuntu1 "}
